target datalayout = "e-m:e-p270:32:32-p271:32:32-p272:64:64-i64:64-i128:128-f80:128-n8:16:32:64-S128"
target triple = "x86_64-pc-linux-gnu"

%struct.anon.27 = type { i32, %"class.std::vector", %"class.std::vector" }
%"class.std::vector" = type { %"struct.std::_Vector_base" }
%"struct.std::_Vector_base" = type { %"struct.std::_Vector_base<int, std::allocator<int>>::_Vector_impl" }
%"struct.std::_Vector_base<int, std::allocator<int>>::_Vector_impl" = type { %"struct.std::_Vector_base<int, std::allocator<int>>::_Vector_impl_data" }
%"struct.std::_Vector_base<int, std::allocator<int>>::_Vector_impl_data" = type { ptr, ptr, ptr }

; Function Attrs: mustprogress nounwind uwtable
define linkonce_odr dso_local void @_ZNSt15__new_allocatorIiE10deallocateEPim(ptr noundef nonnull align 1 dereferenceable(1) %0, ptr noundef %1, i64 noundef %2) #5 comdat align 2 {
  %4 = alloca ptr, align 8
  %5 = alloca ptr, align 8
  %6 = alloca i64, align 8
  store ptr %0, ptr %4, align 8, !tbaa !148
  store ptr %1, ptr %5, align 8, !tbaa !64
  store i64 %2, ptr %6, align 8, !tbaa !46
  %7 = load ptr, ptr %5, align 8, !tbaa !64
  %8 = load i64, ptr %6, align 8, !tbaa !46
  %9 = mul i64 %8, 4
  call void @_ZdlPvm(ptr noundef %7, i64 noundef %9) #19
  ret void
}

; Function Attrs: mustprogress uwtable
define linkonce_odr dso_local void @_ZNSt16allocator_traitsISaIiEE10deallocateERS0_Pim(ptr noundef nonnull align 1 dereferenceable(1) %0, ptr noundef %1, i64 noundef %2) #6 comdat align 2 {
  %4 = alloca ptr, align 8
  %5 = alloca ptr, align 8
  %6 = alloca i64, align 8
  store ptr %0, ptr %4, align 8, !tbaa !144
  store ptr %1, ptr %5, align 8, !tbaa !64
  store i64 %2, ptr %6, align 8, !tbaa !46
  %7 = load ptr, ptr %4, align 8, !tbaa !144
  %8 = load ptr, ptr %5, align 8, !tbaa !64
  %9 = load i64, ptr %6, align 8, !tbaa !46
  call void @_ZNSt15__new_allocatorIiE10deallocateEPim(ptr noundef nonnull align 1 dereferenceable(1) %7, ptr noundef %8, i64 noundef %9)
  ret void
}

; Function Attrs: mustprogress nounwind uwtable
define linkonce_odr dso_local void @_ZNSt12_Destroy_auxILb1EE9__destroyIPiEEvT_S3_(ptr noundef %0, ptr noundef %1) #5 comdat align 2 {
  %3 = alloca ptr, align 8
  %4 = alloca ptr, align 8
  store ptr %0, ptr %3, align 8, !tbaa !64
  store ptr %1, ptr %4, align 8, !tbaa !64
  ret void
}

; Function Attrs: mustprogress nounwind uwtable
define linkonce_odr dso_local void @_ZNSt15__new_allocatorIiED2Ev(ptr noundef nonnull align 1 dereferenceable(1) %0) unnamed_addr #5 comdat align 2 {
  %2 = alloca ptr, align 8
  store ptr %0, ptr %2, align 8, !tbaa !148
  ret void
}

; Function Attrs: mustprogress uwtable
define linkonce_odr dso_local void @_ZNSt12_Vector_baseIiSaIiEE13_M_deallocateEPim(ptr noundef nonnull align 8 dereferenceable(24) %0, ptr noundef %1, i64 noundef %2) #6 comdat align 2 {
  %4 = alloca ptr, align 8
  %5 = alloca ptr, align 8
  %6 = alloca i64, align 8
  store ptr %0, ptr %4, align 8, !tbaa !153
  store ptr %1, ptr %5, align 8, !tbaa !64
  store i64 %2, ptr %6, align 8, !tbaa !46
  %7 = load ptr, ptr %4, align 8
  %8 = load ptr, ptr %5, align 8, !tbaa !64
  %9 = icmp ne ptr %8, null
  br i1 %9, label %10, label %14

10:                                               ; preds = %3
  %11 = getelementptr inbounds nuw %"struct.std::_Vector_base", ptr %7, i32 0, i32 0
  %12 = load ptr, ptr %5, align 8, !tbaa !64
  %13 = load i64, ptr %6, align 8, !tbaa !46
  call void @_ZNSt16allocator_traitsISaIiEE10deallocateERS0_Pim(ptr noundef nonnull align 1 dereferenceable(1) %11, ptr noundef %12, i64 noundef %13)
  br label %14

14:                                               ; preds = %10, %3
  ret void
}

; Function Attrs: inlinehint mustprogress uwtable
define linkonce_odr dso_local void @_ZSt8_DestroyIPiEvT_S1_(ptr noundef %0, ptr noundef %1) #8 comdat {
  %3 = alloca ptr, align 8
  %4 = alloca ptr, align 8
  store ptr %0, ptr %3, align 8, !tbaa !64
  store ptr %1, ptr %4, align 8, !tbaa !64
  %5 = load ptr, ptr %3, align 8, !tbaa !64
  %6 = load ptr, ptr %4, align 8, !tbaa !64
  call void @_ZNSt12_Destroy_auxILb1EE9__destroyIPiEEvT_S3_(ptr noundef %5, ptr noundef %6)
  ret void
}

; Function Attrs: noinline noreturn nounwind uwtable
define linkonce_odr hidden void @__clang_call_terminate(ptr noundef %0) #11 comdat {
  %2 = call ptr @__cxa_begin_catch(ptr %0) #3
  call void @_ZSt9terminatev() #21
  unreachable
}

; Function Attrs: mustprogress nounwind uwtable
define linkonce_odr dso_local void @_ZNSt12_Vector_baseIiSaIiEED2Ev(ptr noundef nonnull align 8 dereferenceable(24) %0) unnamed_addr #5 comdat align 2 personality ptr @__gxx_personality_v0 {
  %2 = alloca ptr, align 8
  store ptr %0, ptr %2, align 8, !tbaa !153
  %3 = load ptr, ptr %2, align 8
  %4 = getelementptr inbounds nuw %"struct.std::_Vector_base", ptr %3, i32 0, i32 0
  %5 = getelementptr inbounds nuw %"struct.std::_Vector_base<int, std::allocator<int>>::_Vector_impl_data", ptr %4, i32 0, i32 0
  %6 = load ptr, ptr %5, align 8, !tbaa !150
  %7 = getelementptr inbounds nuw %"struct.std::_Vector_base", ptr %3, i32 0, i32 0
  %8 = getelementptr inbounds nuw %"struct.std::_Vector_base<int, std::allocator<int>>::_Vector_impl_data", ptr %7, i32 0, i32 2
  %9 = load ptr, ptr %8, align 8, !tbaa !155
  %10 = getelementptr inbounds nuw %"struct.std::_Vector_base", ptr %3, i32 0, i32 0
  %11 = getelementptr inbounds nuw %"struct.std::_Vector_base<int, std::allocator<int>>::_Vector_impl_data", ptr %10, i32 0, i32 0
  %12 = load ptr, ptr %11, align 8, !tbaa !150
  %13 = ptrtoint ptr %9 to i64
  %14 = ptrtoint ptr %12 to i64
  %15 = sub i64 %13, %14
  %16 = sdiv exact i64 %15, 4
  invoke void @_ZNSt12_Vector_baseIiSaIiEE13_M_deallocateEPim(ptr noundef nonnull align 8 dereferenceable(24) %3, ptr noundef %6, i64 noundef %16)
          to label %17 unwind label %19

17:                                               ; preds = %1
  %18 = getelementptr inbounds nuw %"struct.std::_Vector_base", ptr %3, i32 0, i32 0
  call void @_ZNSt15__new_allocatorIiED2Ev(ptr noundef nonnull align 8 dereferenceable(24) %18) #3
  ret void

19:                                               ; preds = %1
  %20 = landingpad { ptr, i32 }
          catch ptr null
  %21 = extractvalue { ptr, i32 } %20, 0
  call void @__clang_call_terminate(ptr %21) #21
  unreachable
}

; Function Attrs: inlinehint mustprogress uwtable
define linkonce_odr dso_local void @_ZSt8_DestroyIPiiEvT_S1_RSaIT0_E(ptr noundef %0, ptr noundef %1, ptr noundef nonnull align 1 dereferenceable(1) %2) #8 comdat {
  %4 = alloca ptr, align 8
  %5 = alloca ptr, align 8
  %6 = alloca ptr, align 8
  store ptr %0, ptr %4, align 8, !tbaa !64
  store ptr %1, ptr %5, align 8, !tbaa !64
  store ptr %2, ptr %6, align 8, !tbaa !144
  %7 = load ptr, ptr %4, align 8, !tbaa !64
  %8 = load ptr, ptr %5, align 8, !tbaa !64
  call void @_ZSt8_DestroyIPiEvT_S1_(ptr noundef %7, ptr noundef %8)
  ret void
}

; Function Attrs: mustprogress nounwind uwtable
define linkonce_odr dso_local noundef nonnull align 1 dereferenceable(1) ptr @_ZNSt12_Vector_baseIiSaIiEE19_M_get_Tp_allocatorEv(ptr noundef nonnull align 8 dereferenceable(24) %0) #5 comdat align 2 {
  %2 = alloca ptr, align 8
  store ptr %0, ptr %2, align 8, !tbaa !153
  %3 = load ptr, ptr %2, align 8
  %4 = getelementptr inbounds nuw %"struct.std::_Vector_base", ptr %3, i32 0, i32 0
  ret ptr %4
}

; Function Attrs: mustprogress nounwind uwtable
define linkonce_odr dso_local void @_ZNSt6vectorIiSaIiEED2Ev(ptr noundef nonnull align 8 dereferenceable(24) %0) unnamed_addr #5 comdat align 2 personality ptr @__gxx_personality_v0 {
  %2 = alloca ptr, align 8
  store ptr %0, ptr %2, align 8, !tbaa !146
  %3 = load ptr, ptr %2, align 8
  %4 = getelementptr inbounds nuw %"struct.std::_Vector_base", ptr %3, i32 0, i32 0
  %5 = getelementptr inbounds nuw %"struct.std::_Vector_base<int, std::allocator<int>>::_Vector_impl_data", ptr %4, i32 0, i32 0
  %6 = load ptr, ptr %5, align 8, !tbaa !150
  %7 = getelementptr inbounds nuw %"struct.std::_Vector_base", ptr %3, i32 0, i32 0
  %8 = getelementptr inbounds nuw %"struct.std::_Vector_base<int, std::allocator<int>>::_Vector_impl_data", ptr %7, i32 0, i32 1
  %9 = load ptr, ptr %8, align 8, !tbaa !151
  %10 = call noundef nonnull align 1 dereferenceable(1) ptr @_ZNSt12_Vector_baseIiSaIiEE19_M_get_Tp_allocatorEv(ptr noundef nonnull align 8 dereferenceable(24) %3) #3
  invoke void @_ZSt8_DestroyIPiiEvT_S1_RSaIT0_E(ptr noundef %6, ptr noundef %9, ptr noundef nonnull align 1 dereferenceable(1) %10)
          to label %11 unwind label %12

11:                                               ; preds = %1
  call void @_ZNSt12_Vector_baseIiSaIiEED2Ev(ptr noundef nonnull align 8 dereferenceable(24) %3) #3
  ret void

12:                                               ; preds = %1
  %13 = landingpad { ptr, i32 }
          catch ptr null
  %14 = extractvalue { ptr, i32 } %13, 0
  call void @__clang_call_terminate(ptr %14) #21
  unreachable
}

; Function Attrs: inlinehint mustprogress nounwind uwtable
define internal void @"_ZZN12_GLOBAL__N_132ChiSquareTest_CalcChiSquare_Test8TestBodyEvEN3$_0D2Ev"(ptr noundef nonnull align 8 dereferenceable(56) %0) unnamed_addr #10 align 2 {
  %2 = alloca ptr, align 8
  store ptr %0, ptr %2, align 8, !tbaa !24
  %3 = load ptr, ptr %2, align 8
  %4 = getelementptr inbounds nuw %struct.anon.27, ptr %3, i32 0, i32 2
  call void @_ZNSt6vectorIiSaIiEED2Ev(ptr noundef nonnull align 8 dereferenceable(24) %4) #3
  %5 = getelementptr inbounds nuw %struct.anon.27, ptr %3, i32 0, i32 1
  call void @_ZNSt6vectorIiSaIiEED2Ev(ptr noundef nonnull align 8 dereferenceable(24) %5) #3
  ret void
}